; Function Attrs: mustprogress ssp uwtable
define void @_ZN6open3d4core7HashMap6InsertERKNS0_6TensorERKSt6vectorIS2_SaIS2_EERS2_SA_(ptr noundef nonnull align 8 dereferenceable(152) %0, ptr noundef nonnull align 8 dereferenceable(160) %1, ptr noundef nonnull readonly align 8 captures(none) dereferenceable(24) %2, ptr noundef nonnull align 8 dereferenceable(160) %3, ptr noundef nonnull align 8 dereferenceable(160) %4) local_unnamed_addr #2 align 2 personality ptr @__gxx_personality_v0 {
  %6 = alloca %"class.open3d::core::SizeVector", align 8
  call void @llvm.lifetime.start.p0(i64 48, ptr nonnull %6) #30
  %7 = getelementptr inbounds nuw i8, ptr %1, i64 8
  call void @_ZN6open3d4core10SizeVectorC1ERKS1_(ptr noundef nonnull align 8 dereferenceable(48) %6, ptr noundef nonnull align 8 dereferenceable(48) %7)
  %8 = invoke noundef i64 @_ZNK6open3d4core10SizeVector9GetLengthEv(ptr noundef nonnull align 8 dereferenceable(48) %6)
          to label %9 unwind label %14

9:                                                ; preds = %5
  %10 = load ptr, ptr %6, align 8, !tbaa !13
  %11 = getelementptr inbounds nuw i8, ptr %6, i64 16
  %12 = icmp eq ptr %10, %11
  br i1 %12, label %_ZNK6open3d4core6Tensor9GetLengthEv.exit, label %13

13:                                               ; preds = %9
  call void @free(ptr noundef %10) #30
  br label %_ZNK6open3d4core6Tensor9GetLengthEv.exit

14:                                               ; preds = %5
  %15 = landingpad { ptr, i32 }
          cleanup
  %16 = load ptr, ptr %6, align 8, !tbaa !13
  %17 = getelementptr inbounds nuw i8, ptr %6, i64 16
  %18 = icmp eq ptr %16, %17
  br i1 %18, label %_ZN6open3d4core11SmallVectorIlLj4EED2Ev.exit2.i, label %19

19:                                               ; preds = %14
  call void @free(ptr noundef %16) #30
  br label %_ZN6open3d4core11SmallVectorIlLj4EED2Ev.exit2.i

_ZN6open3d4core11SmallVectorIlLj4EED2Ev.exit2.i:  ; preds = %19, %14
  call void @llvm.lifetime.end.p0(i64 48, ptr nonnull %6) #30
  resume { ptr, i32 } %15

_ZNK6open3d4core6Tensor9GetLengthEv.exit:         ; preds = %9, %13
  call void @llvm.lifetime.end.p0(i64 48, ptr nonnull %6) #30
  %20 = getelementptr inbounds nuw i8, ptr %0, i64 8
  %21 = load ptr, ptr %20, align 8, !tbaa !32
  %22 = load ptr, ptr %21, align 8, !tbaa !4
  %23 = getelementptr inbounds nuw i8, ptr %22, i64 64
  %24 = load ptr, ptr %23, align 8
  %25 = call noundef i64 %24(ptr noundef nonnull align 8 dereferenceable(72) %21)
  %26 = add nsw i64 %25, %8
  %27 = load ptr, ptr %20, align 8, !tbaa !32
  %28 = getelementptr inbounds nuw i8, ptr %27, i64 8
  %29 = load i64, ptr %28, align 8, !tbaa !79
  %30 = icmp sgt i64 %26, %29
  br i1 %30, label %31, label %33

31:                                               ; preds = %_ZNK6open3d4core6Tensor9GetLengthEv.exit
  %32 = shl nsw i64 %29, 1
  %.sroa.speculated = call i64 @llvm.smax.i64(i64 %26, i64 %32)
  call void @_ZN6open3d4core7HashMap7ReserveEl(ptr noundef nonnull align 8 dereferenceable(152) %0, i64 noundef %.sroa.speculated)
  br label %33

33:                                               ; preds = %31, %_ZNK6open3d4core6Tensor9GetLengthEv.exit
  call void @_ZN6open3d4core7HashMap10InsertImplERKNS0_6TensorERKSt6vectorIS2_SaIS2_EERS2_SA_b(ptr noundef nonnull align 8 dereferenceable(152) %0, ptr noundef nonnull align 8 dereferenceable(160) %1, ptr noundef nonnull align 8 dereferenceable(24) %2, ptr noundef nonnull align 8 dereferenceable(160) %3, ptr noundef nonnull align 8 dereferenceable(160) %4, i1 noundef zeroext false)
  ret void
}